target datalayout = "e-m:e-p270:32:32-p271:32:32-p272:64:64-i64:64-i128:128-f80:128-n8:16:32:64-S128"
target triple = "x86_64-pc-linux-gnu"

%struct.strbuf = type { i64, i64, ptr }
%struct.stat = type { i64, i64, i64, i32, i32, i32, i32, i64, i64, i64, i64, %struct.timespec, %struct.timespec, %struct.timespec, [3 x i64] }
%struct.timespec = type { i64, i64 }
%struct.anon = type { ptr, i8 }
%struct.generated_pack_data = type { [6 x ptr] }

@strbuf_slopbuf = external global [0 x i8], align 1
@packtmp = internal global ptr null, align 8
@.str.117 = private unnamed_addr constant [11 x i8] c"./strbuf.h\00", align 1
@.str.118 = private unnamed_addr constant [30 x i8] c"strbuf_setlen() beyond buffer\00", align 1
@__const.populate_pack_exts.path = private unnamed_addr constant %struct.strbuf { i64 0, i64 0, ptr @strbuf_slopbuf }, align 8
@.str.141 = private unnamed_addr constant [8 x i8] c"%s-%s%s\00", align 1

; Function Attrs: inlinehint nounwind uwtable
define internal void @strbuf_setlen(ptr noundef %0, i64 noundef %1) #5 {
  %3 = alloca ptr, align 8
  %4 = alloca i64, align 8
  store ptr %0, ptr %3, align 8, !tbaa !168
  store i64 %1, ptr %4, align 8, !tbaa !121
  %5 = load i64, ptr %4, align 8, !tbaa !121
  %6 = load ptr, ptr %3, align 8, !tbaa !168
  %7 = getelementptr inbounds nuw %struct.strbuf, ptr %6, i32 0, i32 0
  %8 = load i64, ptr %7, align 8, !tbaa !170
  %9 = icmp ne i64 %8, 0
  br i1 %9, label %10, label %15

10:                                               ; preds = %2
  %11 = load ptr, ptr %3, align 8, !tbaa !168
  %12 = getelementptr inbounds nuw %struct.strbuf, ptr %11, i32 0, i32 0
  %13 = load i64, ptr %12, align 8, !tbaa !170
  %14 = sub i64 %13, 1
  br label %16

15:                                               ; preds = %2
  br label %16

16:                                               ; preds = %15, %10
  %17 = phi i64 [ %14, %10 ], [ 0, %15 ]
  %18 = icmp ugt i64 %5, %17
  br i1 %18, label %19, label %20

19:                                               ; preds = %16
  call void (ptr, i32, ptr, ...) @BUG_fl(ptr noundef @.str.117, i32 noundef 167, ptr noundef @.str.118) #11
  unreachable

20:                                               ; preds = %16
  %21 = load i64, ptr %4, align 8, !tbaa !121
  %22 = load ptr, ptr %3, align 8, !tbaa !168
  %23 = getelementptr inbounds nuw %struct.strbuf, ptr %22, i32 0, i32 1
  store i64 %21, ptr %23, align 8, !tbaa !130
  %24 = load ptr, ptr %3, align 8, !tbaa !168
  %25 = getelementptr inbounds nuw %struct.strbuf, ptr %24, i32 0, i32 2
  %26 = load ptr, ptr %25, align 8, !tbaa !40
  %27 = icmp ne ptr %26, @strbuf_slopbuf
  br i1 %27, label %28, label %34

28:                                               ; preds = %20
  %29 = load ptr, ptr %3, align 8, !tbaa !168
  %30 = getelementptr inbounds nuw %struct.strbuf, ptr %29, i32 0, i32 2
  %31 = load ptr, ptr %30, align 8, !tbaa !40
  %32 = load i64, ptr %4, align 8, !tbaa !121
  %33 = getelementptr inbounds nuw i8, ptr %31, i64 %32
  store i8 0, ptr %33, align 1, !tbaa !102
  br label %35

34:                                               ; preds = %20
  br label %35

35:                                               ; preds = %34, %28
  ret void
}

; Function Attrs: nounwind uwtable
define internal ptr @populate_pack_exts(ptr noundef %0) #0 {
  %2 = alloca ptr, align 8
  %3 = alloca %struct.stat, align 8
  %4 = alloca %struct.strbuf, align 8
  %5 = alloca ptr, align 8
  %6 = alloca i32, align 4
  store ptr %0, ptr %2, align 8, !tbaa !11
  call void @llvm.lifetime.start.p0(i64 144, ptr %3) #10
  call void @llvm.lifetime.start.p0(i64 24, ptr %4) #10
  call void @llvm.memcpy.p0.p0.i64(ptr align 8 %4, ptr align 8 @__const.populate_pack_exts.path, i64 24, i1 false)
  call void @llvm.lifetime.start.p0(i64 8, ptr %5) #10
  %7 = call ptr @xcalloc(i64 noundef 1, i64 noundef 48)
  store ptr %7, ptr %5, align 8, !tbaa !88
  call void @llvm.lifetime.start.p0(i64 4, ptr %6) #10
  store i32 0, ptr %6, align 4, !tbaa !4
  br label %8

8:                                                ; preds = %34, %1
  %9 = load i32, ptr %6, align 4, !tbaa !4
  %10 = sext i32 %9 to i64
  %11 = icmp ult i64 %10, 6
  br i1 %11, label %12, label %37

12:                                               ; preds = %8
  call void @strbuf_setlen(ptr noundef %4, i64 noundef 0)
  %13 = load ptr, ptr @packtmp, align 8, !tbaa !11
  %14 = load ptr, ptr %2, align 8, !tbaa !11
  %15 = load i32, ptr %6, align 4, !tbaa !4
  %16 = sext i32 %15 to i64
  %17 = getelementptr inbounds [6 x %struct.anon], ptr @exts, i64 0, i64 %16
  %18 = getelementptr inbounds nuw %struct.anon, ptr %17, i32 0, i32 0
  %19 = load ptr, ptr %18, align 16, !tbaa !90
  call void (ptr, ptr, ...) @strbuf_addf(ptr noundef %4, ptr noundef @.str.141, ptr noundef %13, ptr noundef %14, ptr noundef %19)
  %20 = getelementptr inbounds nuw %struct.strbuf, ptr %4, i32 0, i32 2
  %21 = load ptr, ptr %20, align 8, !tbaa !40
  %22 = call i32 @stat64(ptr noundef %21, ptr noundef %3) #10
  %23 = icmp ne i32 %22, 0
  br i1 %23, label %24, label %25

24:                                               ; preds = %12
  br label %34

25:                                               ; preds = %12
  %26 = getelementptr inbounds nuw %struct.strbuf, ptr %4, i32 0, i32 2
  %27 = load ptr, ptr %26, align 8, !tbaa !40
  %28 = call ptr @register_tempfile(ptr noundef %27)
  %29 = load ptr, ptr %5, align 8, !tbaa !88
  %30 = getelementptr inbounds nuw %struct.generated_pack_data, ptr %29, i32 0, i32 0
  %31 = load i32, ptr %6, align 4, !tbaa !4
  %32 = sext i32 %31 to i64
  %33 = getelementptr inbounds [6 x ptr], ptr %30, i64 0, i64 %32
  store ptr %28, ptr %33, align 8, !tbaa !15
  br label %34

34:                                               ; preds = %25, %24
  %35 = load i32, ptr %6, align 4, !tbaa !4
  %36 = add nsw i32 %35, 1
  store i32 %36, ptr %6, align 4, !tbaa !4
  br label %8, !llvm.loop !173

37:                                               ; preds = %8
  call void @strbuf_release(ptr noundef %4)
  %38 = load ptr, ptr %5, align 8, !tbaa !88
  call void @llvm.lifetime.end.p0(i64 4, ptr %6) #10
  call void @llvm.lifetime.end.p0(i64 8, ptr %5) #10
  call void @llvm.lifetime.end.p0(i64 24, ptr %4) #10
  call void @llvm.lifetime.end.p0(i64 144, ptr %3) #10
  ret ptr %38
}