; Function Attrs: nounwind uwtable
define internal fastcc ptr @populate_pack_exts(ptr noundef %0) unnamed_addr #0 {
  %2 = alloca %struct.stat, align 8
  %3 = alloca %struct.strbuf, align 8
  call void @llvm.lifetime.start.p0(i64 144, ptr nonnull %2) #16
  call void @llvm.lifetime.start.p0(i64 24, ptr nonnull %3) #16
  call void @llvm.memcpy.p0.p0.i64(ptr noundef nonnull align 8 dereferenceable(24) %3, ptr noundef nonnull align 8 dereferenceable(24) @__const.geometry_remove_redundant_packs.buf, i64 24, i1 false)
  %4 = tail call ptr @xcalloc(i64 noundef 1, i64 noundef 48) #16
  %5 = getelementptr inbounds nuw i8, ptr %3, i64 8
  %6 = getelementptr inbounds nuw i8, ptr %3, i64 16
  br label %7

7:                                                ; preds = %1, %19
  %indvars.iv = phi i64 [ 0, %1 ], [ %indvars.iv.next, %19 ]
  store i64 0, ptr %5, align 8, !tbaa !50
  %8 = load ptr, ptr %6, align 8, !tbaa !32
  %.not9.i = icmp eq ptr %8, @strbuf_slopbuf
  br i1 %.not9.i, label %strbuf_setlen.exit, label %9

9:                                                ; preds = %7
  store i8 0, ptr %8, align 1, !tbaa !51
  br label %strbuf_setlen.exit

strbuf_setlen.exit:                               ; preds = %7, %9
  %10 = load ptr, ptr @packtmp, align 8, !tbaa !8
  %11 = getelementptr inbounds nuw [6 x %struct.anon], ptr @exts, i64 0, i64 %indvars.iv
  %12 = load ptr, ptr %11, align 16, !tbaa !110
  call void (ptr, ptr, ...) @strbuf_addf(ptr noundef nonnull %3, ptr noundef nonnull @.str.141, ptr noundef %10, ptr noundef %0, ptr noundef %12) #16
  %13 = load ptr, ptr %6, align 8, !tbaa !32
  %14 = call i32 @stat64(ptr noundef %13, ptr noundef nonnull %2) #16
  %.not = icmp eq i32 %14, 0
  br i1 %.not, label %15, label %19

15:                                               ; preds = %strbuf_setlen.exit
  %16 = load ptr, ptr %6, align 8, !tbaa !32
  %17 = call ptr @register_tempfile(ptr noundef %16) #16
  %18 = getelementptr inbounds nuw [6 x ptr], ptr %4, i64 0, i64 %indvars.iv
  store ptr %17, ptr %18, align 8, !tbaa !33
  br label %19

19:                                               ; preds = %strbuf_setlen.exit, %15
  %indvars.iv.next = add nuw nsw i64 %indvars.iv, 1
  %exitcond.not = icmp eq i64 %indvars.iv.next, 6
  br i1 %exitcond.not, label %20, label %7, !llvm.loop !131

20:                                               ; preds = %19
  call void @strbuf_release(ptr noundef nonnull %3) #16
  call void @llvm.lifetime.end.p0(i64 24, ptr nonnull %3) #16
  call void @llvm.lifetime.end.p0(i64 144, ptr nonnull %2) #16
  ret ptr %4
}